; Function Attrs: mustprogress nofree norecurse nosync nounwind willreturn memory(argmem: write) uwtable
define void @_ZN7glslang7TShader21setStringsWithLengthsEPKPKcPKii(ptr noundef nonnull writeonly align 8 captures(none) dereferenceable(165) initializes((48, 64), (72, 76)) %0, ptr noundef %1, ptr noundef %2, i32 noundef %3) local_unnamed_addr #7 align 2 {
  %5 = getelementptr inbounds nuw i8, ptr %0, i64 48
  store ptr %1, ptr %5, align 8
  %6 = getelementptr inbounds nuw i8, ptr %0, i64 72
  store i32 %3, ptr %6, align 8
  %7 = getelementptr inbounds nuw i8, ptr %0, i64 56
  store ptr %2, ptr %7, align 8
  ret void
}